; Function Attrs: mustprogress nounwind uwtable
define dso_local noundef i32 @napi_acquire_threadsafe_function(ptr noundef %func) local_unnamed_addr #3 {
entry:
  %cmp.not = icmp eq ptr %func, null
  br i1 %cmp.not, label %do.body3, label %do.end4

do.body3:                                         ; preds = %entry
  tail call void @_ZN4node6AssertERKNS_13AssertionInfoE(ptr noundef nonnull align 8 dereferenceable(24) @_ZZ32napi_acquire_threadsafe_functionE4args) #21
  tail call void @abort() #22
  unreachable

do.end4:                                          ; preds = %entry
  %mutex.i = getelementptr inbounds i8, ptr %func, i64 40
  tail call void @uv_mutex_lock(ptr noundef nonnull %mutex.i) #21
  %is_closing.i = getelementptr inbounds i8, ptr %func, i64 304
  %0 = load i8, ptr %is_closing.i, align 8
  %1 = and i8 %0, 1
  %tobool.not.i = icmp eq i8 %1, 0
  br i1 %tobool.not.i, label %if.end.i, label %_ZN6v8impl12_GLOBAL__N_118ThreadSafeFunction7AcquireEv.exit

if.end.i:                                         ; preds = %do.end4
  %thread_count.i = getelementptr inbounds i8, ptr %func, i64 296
  %2 = load i64, ptr %thread_count.i, align 8
  %inc.i = add i64 %2, 1
  store i64 %inc.i, ptr %thread_count.i, align 8
  br label %_ZN6v8impl12_GLOBAL__N_118ThreadSafeFunction7AcquireEv.exit

_ZN6v8impl12_GLOBAL__N_118ThreadSafeFunction7AcquireEv.exit: ; preds = %do.end4, %if.end.i
  %retval.0.i = phi i32 [ 0, %if.end.i ], [ 16, %do.end4 ]
  tail call void @uv_mutex_unlock(ptr noundef nonnull %mutex.i) #21
  ret i32 %retval.0.i
}